; Function Attrs: mustprogress nofree norecurse nosync nounwind willreturn memory(argmem: read) uwtable
define noundef double @_ZNK8QuantLib23RangeAccrualPricerByBgm19derLambdaDerLambdaSEd(ptr nocapture noundef nonnull readonly align 8 dereferenceable(224) %this, double noundef %U) local_unnamed_addr #17 align 2 {
entry:
  %startTime_ = getelementptr inbounds nuw i8, ptr %this, i64 16
  %0 = load double, ptr %startTime_, align 8, !tbaa !115
  %cmp = fcmp ogt double %0, 0.000000e+00
  %endTime_ = getelementptr inbounds nuw i8, ptr %this, i64 24
  %1 = load double, ptr %endTime_, align 8
  %sub = fsub double %1, %U
  %accrualFactor_ = getelementptr inbounds nuw i8, ptr %this, i64 32
  %2 = load double, ptr %accrualFactor_, align 8
  %div = fdiv double %sub, %2
  %retval.0 = select i1 %cmp, double %div, double 0.000000e+00
  ret double %retval.0
}